Certificate:
    Data:
        Version: 3 (0x2)
        Serial Number: 1 (0x1)
    Signature Algorithm: sha256WithRSAEncryption
        Issuer: C=US, ST=Unset, L=Unset, O=Unset, CN=localhost
        Validity
            Not Before: Jan 18 10:14:39 2018 GMT
            Not After : Jan 16 10:14:39 2028 GMT
        Subject: C=US, ST=Unset, O=Unset, CN=localhost
        Subject Public Key Info:
            Public Key Algorithm: rsaEncryption
                Public-Key: (1024 bit)
                Modulus:
                    00:ef:ff:b3:bd:d4:e6:f2:aa:e8:b2:ec:88:fc:d3:
                    0b:24:d1:bb:33:8b:03:fd:35:fc:11:e3:68:75:9b:
                    f9:8a:c7:48:83:95:52:aa:50:a2:da:00:df:c5:4b:
                    80:3a:1a:6f:be:d7:3f:8d:86:3b:02:0e:7b:fa:cc:
                    db:65:a3:b1:5b:b6:3e:55:f8:55:a5:ba:f2:42:c8:
                    c6:2b:cb:a8:7b:21:49:55:2e:c1:bd:0e:bf:c4:a9:
                    22:89:0b:72:83:76:89:17:72:f1:f5:61:4f:4d:b4:
                    53:39:40:89:aa:cc:b0:b7:65:ec:f2:99:13:35:fa:
                    8b:72:81:07:4e:63:2b:86:5d
                Exponent: 65537 (0x10001)
        X509v3 extensions:
            X509v3 Basic Constraints: 
                CA:FALSE
            X509v3 Subject Key Identifier: 
                0D:98:6F:9A:A6:2B:20:50:6C:E0:65:ED:D3:EB:1B:1C:93:1A:7B:94
            X509v3 Authority Key Identifier: 
                keyid:12:68:EE:6C:77:57:89:DD:63:1D:4A:32:19:4A:A7:D5:E6:DB:ED:C1

    Signature Algorithm: sha256WithRSAEncryption
         84:e6:98:99:cd:c8:79:6a:fc:20:3f:b3:40:c1:84:26:9d:7c:
         7d:8f:0f:19:7f:8c:38:18:54:a2:ad:7a:1b:1a:62:af:bb:85:
         c5:8d:83:08:df:08:a3:bf:28:19:67:17:b2:25:ee:c8:aa:2d:
         e5:e0:ee:a2:19:72:9f:f6:09:74:7b:18:fa:37:d0:c3:30:b0:
         16:ff:31:26:1a:bb:93:d1:a0:a7:fe:74:d0:94:1d:e6:24:32:
         8e:36:06:a3:54:1b:43:3a:85:90:bb:8b:66:1e:93:a2:6f:f9:
         bc:00:de:15:c4:3e:b1:3e:a0:b1:05:ca:ae:ad:ad:5c:4d:5a:
         cb:92
-----BEGIN CERTIFICATE-----
MIICVTCCAb6gAwIBAgIBATANBgkqhkiG9w0BAQsFADBRMQswCQYDVQQGEwJVUzEO
MAwGA1UECAwFVW5zZXQxDjAMBgNVBAcMBVVuc2V0MQ4wDAYDVQQKDAVVbnNldDES
MBAGA1UEAwwJbG9jYWxob3N0MB4XDTE4MDExODEwMTQzOVoXDTI4MDExNjEwMTQz
OVowQTELMAkGA1UEBhMCVVMxDjAMBgNVBAgMBVVuc2V0MQ4wDAYDVQQKDAVVbnNl
dDESMBAGA1UEAwwJbG9jYWxob3N0MIGfMA0GCSqGSIb3DQEBAQUAA4GNADCBiQKB
gQDv/7O91Obyquiy7Ij80wsk0bsziwP9NfwR42h1m/mKx0iDlVKqUKLaAN/FS4A6
Gm++1z+NhjsCDnv6zNtlo7Fbtj5V+FWluvJCyMYry6h7IUlVLsG9Dr/EqSKJC3KD
dokXcvH1YU9NtFM5QImqzLC3ZezymRM1+otygQdOYyuGXQIDAQABo00wSzAJBgNV
HRMEAjAAMB0GA1UdDgQWBBQNmG+apisgUGzgZe3T6xsckxp7lDAfBgNVHSMEGDAW
gBQSaO5sd1eJ3WMdSjIZSqfV5tvtwTANBgkqhkiG9w0BAQsFAAOBgQCE5piZzch5
avwgP7NAwYQmnXx9jw8Zf4w4GFSirXobGmKvu4XFjYMI3wijvygZZxeyJe7Iqi3l
4O6iGXKf9gl0exj6N9DDMLAW/zEmGruT0aCn/nTQlB3mJDKONgajVBtDOoWQu4tm
HpOib/m8AN4VxD6xPqCxBcqura1cTVrLkg==
-----END CERTIFICATE-----
